target datalayout = "e-m:e-p270:32:32-p271:32:32-p272:64:64-i64:64-i128:128-f80:128-n8:16:32:64-S128"
target triple = "x86_64-pc-linux-gnu"

%struct._YR_COMPILER = type { i32, i32, i32, i32, i32, [1 x %struct.__jmp_buf_tag], ptr, ptr, ptr, ptr, ptr, ptr, ptr, ptr, ptr, ptr, ptr, ptr, ptr, ptr, i32, i32, [4 x ptr], [4 x ptr], i32, i32, i32, [16 x ptr], i32, [16 x ptr], i32, [256 x i8], [1024 x i8], ptr, i16, [1024 x i8], ptr, %struct.rq, %struct.cs, ptr, i32 }
%struct.__jmp_buf_tag = type { [8 x i64], i32, %struct.__sigset_t }
%struct.__sigset_t = type { [16 x i64] }
%struct.rq = type { ptr, ptr }
%struct.cs = type { ptr, ptr }

; Function Attrs: nounwind uwtable
define i32 @yr_parser_emit_with_arg_reloc(ptr noundef %0, i8 noundef signext %1, i64 noundef %2, ptr noundef %3) #0 {
  %5 = alloca ptr, align 8
  %6 = alloca i8, align 1
  %7 = alloca i64, align 8
  %8 = alloca ptr, align 8
  %9 = alloca ptr, align 8
  %10 = alloca i32, align 4
  store ptr %0, ptr %5, align 8, !tbaa !3
  store i8 %1, ptr %6, align 1, !tbaa !7
  store i64 %2, ptr %7, align 8, !tbaa !24
  store ptr %3, ptr %8, align 8, !tbaa !8
  call void @llvm.lifetime.start.p0(i64 8, ptr %9) #5
  call void @llvm.lifetime.start.p0(i64 4, ptr %10) #5
  %11 = load ptr, ptr %5, align 8, !tbaa !3
  %12 = call ptr @yara_yyget_extra(ptr noundef %11)
  %13 = getelementptr inbounds nuw %struct._YR_COMPILER, ptr %12, i32 0, i32 9
  %14 = load ptr, ptr %13, align 8, !tbaa !10
  %15 = load ptr, ptr %8, align 8, !tbaa !8
  %16 = call i32 @yr_arena_write_data(ptr noundef %14, ptr noundef %6, i64 noundef 1, ptr noundef %15)
  store i32 %16, ptr %10, align 4, !tbaa !26
  %17 = load i32, ptr %10, align 4, !tbaa !26
  %18 = icmp eq i32 %17, 0
  br i1 %18, label %19, label %25

19:                                               ; preds = %4
  %20 = load ptr, ptr %5, align 8, !tbaa !3
  %21 = call ptr @yara_yyget_extra(ptr noundef %20)
  %22 = getelementptr inbounds nuw %struct._YR_COMPILER, ptr %21, i32 0, i32 9
  %23 = load ptr, ptr %22, align 8, !tbaa !10
  %24 = call i32 @yr_arena_write_data(ptr noundef %23, ptr noundef %7, i64 noundef 8, ptr noundef %9)
  store i32 %24, ptr %10, align 4, !tbaa !26
  br label %25

25:                                               ; preds = %19, %4
  %26 = load i32, ptr %10, align 4, !tbaa !26
  %27 = icmp eq i32 %26, 0
  br i1 %27, label %28, label %35

28:                                               ; preds = %25
  %29 = load ptr, ptr %5, align 8, !tbaa !3
  %30 = call ptr @yara_yyget_extra(ptr noundef %29)
  %31 = getelementptr inbounds nuw %struct._YR_COMPILER, ptr %30, i32 0, i32 9
  %32 = load ptr, ptr %31, align 8, !tbaa !10
  %33 = load ptr, ptr %9, align 8, !tbaa !3
  %34 = call i32 (ptr, ptr, ...) @yr_arena_make_relocatable(ptr noundef %32, ptr noundef %33, i32 noundef 0, i64 noundef -1)
  store i32 %34, ptr %10, align 4, !tbaa !26
  br label %35

35:                                               ; preds = %28, %25
  %36 = load i32, ptr %10, align 4, !tbaa !26
  call void @llvm.lifetime.end.p0(i64 4, ptr %10) #5
  call void @llvm.lifetime.end.p0(i64 8, ptr %9) #5
  ret i32 %36
}