; Function Attrs: nounwind uwtable
define i32 @yr_parser_emit_with_arg_reloc(ptr noundef %0, i8 noundef signext %1, i64 noundef %2, ptr noundef %3) local_unnamed_addr #0 {
  %5 = alloca i8, align 1
  %6 = alloca i64, align 8
  %7 = alloca ptr, align 8
  store i8 %1, ptr %5, align 1, !tbaa !3
  store i64 %2, ptr %6, align 8, !tbaa !21
  call void @llvm.lifetime.start.p0(i64 8, ptr nonnull %7) #6
  %8 = tail call ptr @yara_yyget_extra(ptr noundef %0) #6
  %9 = getelementptr inbounds nuw i8, ptr %8, i64 248
  %10 = load ptr, ptr %9, align 8, !tbaa !6
  %11 = call i32 @yr_arena_write_data(ptr noundef %10, ptr noundef nonnull %5, i64 noundef 1, ptr noundef %3) #6
  %12 = icmp eq i32 %11, 0
  br i1 %12, label %13, label %.thread

13:                                               ; preds = %4
  %14 = call ptr @yara_yyget_extra(ptr noundef %0) #6
  %15 = getelementptr inbounds nuw i8, ptr %14, i64 248
  %16 = load ptr, ptr %15, align 8, !tbaa !6
  %17 = call i32 @yr_arena_write_data(ptr noundef %16, ptr noundef nonnull %6, i64 noundef 8, ptr noundef nonnull %7) #6
  %18 = icmp eq i32 %17, 0
  br i1 %18, label %19, label %.thread

19:                                               ; preds = %13
  %20 = call ptr @yara_yyget_extra(ptr noundef %0) #6
  %21 = getelementptr inbounds nuw i8, ptr %20, i64 248
  %22 = load ptr, ptr %21, align 8, !tbaa !6
  %23 = load ptr, ptr %7, align 8, !tbaa !23
  %24 = call i32 (ptr, ptr, ...) @yr_arena_make_relocatable(ptr noundef %22, ptr noundef %23, i32 noundef 0, i64 noundef -1) #6
  br label %.thread

.thread:                                          ; preds = %4, %19, %13
  %.1 = phi i32 [ %24, %19 ], [ %17, %13 ], [ %11, %4 ]
  call void @llvm.lifetime.end.p0(i64 8, ptr nonnull %7) #6
  ret i32 %.1
}